target datalayout = "e-m:e-p270:32:32-p271:32:32-p272:64:64-i64:64-i128:128-f80:128-n8:16:32:64-S128"
target triple = "x86_64-pc-linux-gnu"

%struct.__va_list_tag = type { i32, i32, ptr, ptr }

@stderr = external global ptr, align 8
@.str = private unnamed_addr constant [2 x i8] c"\0A\00", align 1
@.str.1 = private unnamed_addr constant [61 x i8] c"This is the short help; for full help use 'metaflac --help'\0A\00", align 1

; Function Attrs: alwaysinline
define internal i32 @vfprintf.inline(ptr noalias %0, ptr noalias %1, ptr %2) #3 {
  %4 = alloca ptr, align 8
  %5 = alloca ptr, align 8
  %6 = alloca ptr, align 8
  store ptr %0, ptr %4, align 8, !tbaa !9
  store ptr %1, ptr %5, align 8, !tbaa !4
  store ptr %2, ptr %6, align 8, !tbaa !11
  %7 = load ptr, ptr %4, align 8, !tbaa !9
  %8 = load ptr, ptr %5, align 8, !tbaa !4
  %9 = load ptr, ptr %6, align 8, !tbaa !11
  %10 = call i32 @__vfprintf_chk(ptr noundef %7, i32 noundef 1, ptr noundef %8, ptr noundef %9)
  ret i32 %10
}

; Function Attrs: nounwind sspstrong uwtable
define dso_local i32 @short_usage(ptr noundef %0, ...) #0 {
  %2 = alloca ptr, align 8
  %3 = alloca [1 x %struct.__va_list_tag], align 16
  store ptr %0, ptr %2, align 8, !tbaa !4
  call void @llvm.lifetime.start.p0(i64 24, ptr %3) #5
  %4 = load ptr, ptr %2, align 8, !tbaa !4
  %5 = icmp ne ptr %4, null
  br i1 %5, label %6, label %13

6:                                                ; preds = %1
  %7 = getelementptr inbounds [1 x %struct.__va_list_tag], ptr %3, i64 0, i64 0
  call void @llvm.va_start.p0(ptr %7)
  %8 = load ptr, ptr @stderr, align 8, !tbaa !9
  %9 = load ptr, ptr %2, align 8, !tbaa !4
  %10 = getelementptr inbounds [1 x %struct.__va_list_tag], ptr %3, i64 0, i64 0
  %11 = call i32 @vfprintf.inline(ptr noundef %8, ptr noundef %9, ptr noundef %10) #5
  %12 = getelementptr inbounds [1 x %struct.__va_list_tag], ptr %3, i64 0, i64 0
  call void @llvm.va_end.p0(ptr %12)
  br label %13

13:                                               ; preds = %6, %1
  %14 = load ptr, ptr @stderr, align 8, !tbaa !9
  call void @usage_header(ptr noundef %14)
  %15 = load ptr, ptr @stderr, align 8, !tbaa !9
  %16 = call i32 (ptr, i32, ptr, ...) @__fprintf_chk(ptr noundef %15, i32 noundef 1, ptr noundef @.str)
  %17 = load ptr, ptr @stderr, align 8, !tbaa !9
  %18 = call i32 (ptr, i32, ptr, ...) @__fprintf_chk(ptr noundef %17, i32 noundef 1, ptr noundef @.str.1)
  %19 = load ptr, ptr @stderr, align 8, !tbaa !9
  %20 = call i32 (ptr, i32, ptr, ...) @__fprintf_chk(ptr noundef %19, i32 noundef 1, ptr noundef @.str)
  %21 = load ptr, ptr @stderr, align 8, !tbaa !9
  call void @usage_summary(ptr noundef %21)
  %22 = load ptr, ptr %2, align 8, !tbaa !4
  %23 = icmp ne ptr %22, null
  %24 = select i1 %23, i32 1, i32 0
  call void @llvm.lifetime.end.p0(i64 24, ptr %3) #5
  ret i32 %24
}