; Function Attrs: nounwind sspstrong uwtable
define dso_local range(i32 0, 2) i32 @short_usage(ptr noundef %0, ...) local_unnamed_addr #0 {
  %2 = alloca [1 x %struct.__va_list_tag], align 16
  call void @llvm.lifetime.start.p0(i64 24, ptr nonnull %2) #4
  %.not = icmp ne ptr %0, null
  br i1 %.not, label %3, label %6

3:                                                ; preds = %1
  call void @llvm.va_start.p0(ptr nonnull %2)
  %4 = load ptr, ptr @stderr, align 8, !tbaa !4
  %5 = call i32 @__vfprintf_chk(ptr noundef %4, i32 noundef 1, ptr noundef nonnull %0, ptr noundef nonnull %2) #4
  call void @llvm.va_end.p0(ptr nonnull %2)
  br label %6

6:                                                ; preds = %3, %1
  %7 = load ptr, ptr @stderr, align 8, !tbaa !4
  call fastcc void @usage_header(ptr noundef %7)
  %8 = load ptr, ptr @stderr, align 8, !tbaa !4
  %9 = call i32 (ptr, i32, ptr, ...) @__fprintf_chk(ptr noundef %8, i32 noundef 1, ptr noundef nonnull @.str) #4
  %10 = load ptr, ptr @stderr, align 8, !tbaa !4
  %11 = call i32 (ptr, i32, ptr, ...) @__fprintf_chk(ptr noundef %10, i32 noundef 1, ptr noundef nonnull @.str.1) #4
  %12 = load ptr, ptr @stderr, align 8, !tbaa !4
  %13 = call i32 (ptr, i32, ptr, ...) @__fprintf_chk(ptr noundef %12, i32 noundef 1, ptr noundef nonnull @.str) #4
  %14 = load ptr, ptr @stderr, align 8, !tbaa !4
  call fastcc void @usage_summary(ptr noundef %14)
  %15 = zext i1 %.not to i32
  call void @llvm.lifetime.end.p0(i64 24, ptr nonnull %2) #4
  ret i32 %15
}